; Function Attrs: nounwind uwtable
define hidden void @evmap_signal_active_(ptr noundef readonly captures(none) %0, i32 noundef %1, i32 noundef %2) local_unnamed_addr #1 {
  %4 = getelementptr inbounds nuw i8, ptr %0, i64 824
  %5 = icmp slt i32 %1, 0
  br i1 %5, label %.loopexit, label %6

6:                                                ; preds = %3
  %7 = getelementptr inbounds nuw i8, ptr %0, i64 832
  %8 = load i32, ptr %7, align 8
  %.not = icmp slt i32 %1, %8
  br i1 %.not, label %9, label %.loopexit

9:                                                ; preds = %6
  %10 = load ptr, ptr %4, align 8
  %11 = zext nneg i32 %1 to i64
  %12 = getelementptr inbounds nuw ptr, ptr %10, i64 %11
  %13 = load ptr, ptr %12, align 8
  %.not13 = icmp eq ptr %13, null
  br i1 %.not13, label %.loopexit, label %.preheader

.preheader:                                       ; preds = %9
  %.015 = load ptr, ptr %13, align 8
  %.not1416 = icmp eq ptr %.015, null
  br i1 %.not1416, label %.loopexit, label %.lr.ph

.lr.ph:                                           ; preds = %.preheader
  %14 = trunc i32 %2 to i16
  br label %15

15:                                               ; preds = %.lr.ph, %15
  %.017 = phi ptr [ %.015, %.lr.ph ], [ %.0, %15 ]
  tail call void @event_active_nolock_(ptr noundef nonnull %.017, i32 noundef 8, i16 noundef signext %14) #7
  %16 = getelementptr inbounds nuw i8, ptr %.017, i64 72
  %.0 = load ptr, ptr %16, align 8
  %.not14 = icmp eq ptr %.0, null
  br i1 %.not14, label %.loopexit, label %15, !llvm.loop !9

.loopexit:                                        ; preds = %15, %.preheader, %9, %3, %6
  ret void
}